; Function Attrs: nounwind uwtable
define internal fastcc void @ctdb_display_trans(ptr noundef %0, ptr noundef %1, ptr noundef %2, ptr noundef nonnull %3) unnamed_addr #0 {
  %5 = alloca %struct.nstime_t, align 8
  %6 = getelementptr inbounds nuw i8, ptr %3, i64 4
  %7 = load i32, ptr %6, align 4
  %8 = getelementptr inbounds nuw i8, ptr %0, i64 20
  %9 = load i32, ptr %8, align 4
  %.not = icmp eq i32 %7, %9
  br i1 %.not, label %proto_item_set_generated.exit, label %10

10:                                               ; preds = %4
  %11 = load i32, ptr @hf_ctdb_request_in, align 4
  %12 = tail call ptr @proto_tree_add_uint(ptr noundef %1, i32 noundef %11, ptr noundef %2, i32 noundef 0, i32 noundef 0, i32 noundef %7) #4
  %.not.i = icmp eq ptr %12, null
  br i1 %.not.i, label %proto_item_set_generated.exit, label %13

13:                                               ; preds = %10
  %14 = getelementptr inbounds nuw i8, ptr %12, i64 32
  %15 = load ptr, ptr %14, align 8
  %.not5.i = icmp eq ptr %15, null
  br i1 %.not5.i, label %proto_item_set_generated.exit, label %16

16:                                               ; preds = %13
  %17 = getelementptr inbounds nuw i8, ptr %15, i64 28
  %18 = load i32, ptr %17, align 4
  %19 = or i32 %18, 2
  store i32 %19, ptr %17, align 4
  br label %proto_item_set_generated.exit

proto_item_set_generated.exit:                    ; preds = %16, %13, %10, %4
  %20 = getelementptr inbounds nuw i8, ptr %3, i64 8
  %21 = load i32, ptr %20, align 8
  %.not21 = icmp eq i32 %21, 0
  br i1 %.not21, label %proto_item_set_generated.exit25, label %22

22:                                               ; preds = %proto_item_set_generated.exit
  %23 = load i32, ptr %8, align 4
  %.not22 = icmp eq i32 %21, %23
  br i1 %.not22, label %proto_item_set_generated.exit25, label %24

24:                                               ; preds = %22
  %25 = load i32, ptr @hf_ctdb_response_in, align 4
  %26 = tail call ptr @proto_tree_add_uint(ptr noundef %1, i32 noundef %25, ptr noundef %2, i32 noundef 0, i32 noundef 0, i32 noundef %21) #4
  %.not.i23 = icmp eq ptr %26, null
  br i1 %.not.i23, label %proto_item_set_generated.exit25, label %27

27:                                               ; preds = %24
  %28 = getelementptr inbounds nuw i8, ptr %26, i64 32
  %29 = load ptr, ptr %28, align 8
  %.not5.i24 = icmp eq ptr %29, null
  br i1 %.not5.i24, label %proto_item_set_generated.exit25, label %30

30:                                               ; preds = %27
  %31 = getelementptr inbounds nuw i8, ptr %29, i64 28
  %32 = load i32, ptr %31, align 4
  %33 = or i32 %32, 2
  store i32 %33, ptr %31, align 4
  br label %proto_item_set_generated.exit25

proto_item_set_generated.exit25:                  ; preds = %30, %27, %24, %22, %proto_item_set_generated.exit
  %34 = load i32, ptr %8, align 4
  %35 = load i32, ptr %20, align 8
  %36 = icmp eq i32 %34, %35
  br i1 %36, label %37, label %proto_item_set_generated.exit28

37:                                               ; preds = %proto_item_set_generated.exit25
  %38 = getelementptr inbounds nuw i8, ptr %0, i64 24
  %39 = getelementptr inbounds nuw i8, ptr %3, i64 16
  call void @nstime_delta(ptr noundef nonnull %5, ptr noundef nonnull %38, ptr noundef nonnull %39) #4
  %40 = load i32, ptr @hf_ctdb_time, align 4
  %41 = call ptr @proto_tree_add_time(ptr noundef %1, i32 noundef %40, ptr noundef %2, i32 noundef 0, i32 noundef 0, ptr noundef nonnull %5) #4
  %.not.i26 = icmp eq ptr %41, null
  br i1 %.not.i26, label %proto_item_set_generated.exit28, label %42

42:                                               ; preds = %37
  %43 = getelementptr inbounds nuw i8, ptr %41, i64 32
  %44 = load ptr, ptr %43, align 8
  %.not5.i27 = icmp eq ptr %44, null
  br i1 %.not5.i27, label %proto_item_set_generated.exit28, label %45

45:                                               ; preds = %42
  %46 = getelementptr inbounds nuw i8, ptr %44, i64 28
  %47 = load i32, ptr %46, align 4
  %48 = or i32 %47, 2
  store i32 %48, ptr %46, align 4
  br label %proto_item_set_generated.exit28

proto_item_set_generated.exit28:                  ; preds = %45, %42, %37, %proto_item_set_generated.exit25
  ret void
}